; ModuleID = '45/463.c'
source_filename = "45/463.c"
target datalayout = "e-m:e-p270:32:32-p271:32:32-p272:64:64-i64:64-f80:128-n8:16:32:64-S128"
target triple = "x86_64-pc-linux-gnu"

@.str = private unnamed_addr constant [3 x i8] c"%s\00", align 1
@.str.1 = private unnamed_addr constant [3 x i8] c"%d\00", align 1

; Function Attrs: noinline nounwind uwtable
define dso_local void @main() #0 {
  %1 = alloca [50 x i8], align 16
  %2 = alloca [50 x i8], align 16
  %3 = alloca i8*, align 8
  %4 = alloca i8*, align 8
  %5 = alloca i32, align 4
  %6 = alloca i32, align 4
  %7 = getelementptr inbounds [50 x i8], [50 x i8]* %2, i64 0, i64 0
  %8 = call i32 (i8*, ...) @__isoc99_scanf(i8* getelementptr inbounds ([3 x i8], [3 x i8]* @.str, i64 0, i64 0), i8* %7)
  %9 = getelementptr inbounds [50 x i8], [50 x i8]* %1, i64 0, i64 0
  %10 = call i32 (i8*, ...) @__isoc99_scanf(i8* getelementptr inbounds ([3 x i8], [3 x i8]* @.str, i64 0, i64 0), i8* %9)
  %11 = getelementptr inbounds [50 x i8], [50 x i8]* %1, i64 0, i64 0
  store i8* %11, i8** %3, align 8
  %12 = getelementptr inbounds [50 x i8], [50 x i8]* %2, i64 0, i64 0
  store i8* %12, i8** %4, align 8
  br label %13

13:                                               ; preds = %70, %0
  %14 = load i8*, i8** %3, align 8
  %15 = load i8, i8* %14, align 1
  %16 = sext i8 %15 to i32
  %17 = icmp ne i32 %16, 0
  br i1 %17, label %18, label %71

18:                                               ; preds = %13
  %19 = load i8*, i8** %3, align 8
  %20 = load i8, i8* %19, align 1
  %21 = sext i8 %20 to i32
  %22 = load i8*, i8** %4, align 8
  %23 = load i8, i8* %22, align 1
  %24 = sext i8 %23 to i32
  %25 = icmp eq i32 %21, %24
  br i1 %25, label %26, label %67

26:                                               ; preds = %18
  %27 = load i8*, i8** %3, align 8
  %28 = getelementptr inbounds [50 x i8], [50 x i8]* %1, i64 0, i64 0
  %29 = ptrtoint i8* %27 to i64
  %30 = ptrtoint i8* %28 to i64
  %31 = sub i64 %29, %30
  %32 = trunc i64 %31 to i32
  store i32 %32, i32* %5, align 4
  br label %33

33:                                               ; preds = %49, %26
  %34 = load i8*, i8** %4, align 8
  %35 = load i8, i8* %34, align 1
  %36 = sext i8 %35 to i32
  %37 = icmp ne i32 %36, 0
  br i1 %37, label %38, label %54

38:                                               ; preds = %33
  %39 = load i8*, i8** %4, align 8
  %40 = load i8, i8* %39, align 1
  %41 = sext i8 %40 to i32
  %42 = load i8*, i8** %3, align 8
  %43 = load i8, i8* %42, align 1
  %44 = sext i8 %43 to i32
  %45 = icmp eq i32 %41, %44
  br i1 %45, label %46, label %47

46:                                               ; preds = %38
  store i32 1, i32* %6, align 4
  br label %48

47:                                               ; preds = %38
  store i32 0, i32* %6, align 4
  br label %54

48:                                               ; preds = %46
  br label %49

49:                                               ; preds = %48
  %50 = load i8*, i8** %4, align 8
  %51 = getelementptr inbounds i8, i8* %50, i32 1
  store i8* %51, i8** %4, align 8
  %52 = load i8*, i8** %3, align 8
  %53 = getelementptr inbounds i8, i8* %52, i32 1
  store i8* %53, i8** %3, align 8
  br label %33

54:                                               ; preds = %47, %33
  %55 = load i32, i32* %6, align 4
  %56 = icmp eq i32 %55, 1
  br i1 %56, label %57, label %60

57:                                               ; preds = %54
  %58 = load i32, i32* %5, align 4
  %59 = call i32 (i8*, ...) @printf(i8* getelementptr inbounds ([3 x i8], [3 x i8]* @.str.1, i64 0, i64 0), i32 %58)
  br label %71

60:                                               ; preds = %54
  %61 = getelementptr inbounds [50 x i8], [50 x i8]* %1, i64 0, i64 0
  %62 = load i32, i32* %5, align 4
  %63 = sext i32 %62 to i64
  %64 = getelementptr inbounds i8, i8* %61, i64 %63
  %65 = getelementptr inbounds i8, i8* %64, i64 1
  store i8* %65, i8** %3, align 8
  br label %66

66:                                               ; preds = %60
  br label %70

67:                                               ; preds = %18
  %68 = load i8*, i8** %3, align 8
  %69 = getelementptr inbounds i8, i8* %68, i32 1
  store i8* %69, i8** %3, align 8
  br label %70

70:                                               ; preds = %67, %66
  br label %13

71:                                               ; preds = %57, %13
  ret void
}

declare dso_local i32 @__isoc99_scanf(i8*, ...) #1

declare dso_local i32 @printf(i8*, ...) #1


!llvm.module.flags = !{!0}
!llvm.ident = !{!1}

!0 = !{i32 1, !"wchar_size", i32 4}
!1 = !{!"clang version 10.0.0-4ubuntu1 "}
