; ModuleID = 'source-C-CXX/44/463.c'
source_filename = "source-C-CXX/44/463.c"
target datalayout = "e-m:e-p270:32:32-p271:32:32-p272:64:64-i64:64-f80:128-n8:16:32:64-S128"
target triple = "x86_64-pc-linux-gnu"

@.str = private unnamed_addr constant [3 x i8] c"%s\00", align 1
@.str.1 = private unnamed_addr constant [3 x i8] c"%d\00", align 1

; Function Attrs: nofree nounwind sspstrong uwtable
define dso_local void @main() local_unnamed_addr #0 {
  %1 = alloca [50 x i8], align 16
  %2 = alloca [50 x i8], align 16
  %3 = getelementptr inbounds [50 x i8], [50 x i8]* %1, i64 0, i64 0
  call void @llvm.lifetime.start.p0i8(i64 50, i8* nonnull %3) #3
  %4 = getelementptr inbounds [50 x i8], [50 x i8]* %2, i64 0, i64 0
  call void @llvm.lifetime.start.p0i8(i64 50, i8* nonnull %4) #3
  %5 = call i32 (i8*, ...) @__isoc99_scanf(i8* getelementptr inbounds ([3 x i8], [3 x i8]* @.str, i64 0, i64 0), i8* nonnull %4)
  %6 = call i32 (i8*, ...) @__isoc99_scanf(i8* getelementptr inbounds ([3 x i8], [3 x i8]* @.str, i64 0, i64 0), i8* nonnull %3)
  %7 = ptrtoint [50 x i8]* %1 to i64
  %8 = load i8, i8* %3, align 16, !tbaa !5
  %9 = icmp eq i8 %8, 0
  br i1 %9, label %57, label %10

10:                                               ; preds = %0
  %11 = load i8, i8* %4, align 16, !tbaa !5
  br label %12

12:                                               ; preds = %10, %48
  %13 = phi i8 [ %49, %48 ], [ %11, %10 ]
  %14 = phi i8 [ %50, %48 ], [ %11, %10 ]
  %15 = phi i8 [ %55, %48 ], [ %8, %10 ]
  %16 = phi i32 [ %53, %48 ], [ undef, %10 ]
  %17 = phi i8* [ %54, %48 ], [ %3, %10 ]
  %18 = phi i8* [ %51, %48 ], [ %4, %10 ]
  %19 = icmp eq i8 %15, %14
  br i1 %19, label %20, label %48

20:                                               ; preds = %12
  %21 = ptrtoint i8* %17 to i64
  %22 = sub i64 %21, %7
  %23 = icmp eq i8 %13, 0
  br i1 %23, label %36, label %24

24:                                               ; preds = %20
  %25 = icmp eq i8 %13, %14
  br i1 %25, label %26, label %41

26:                                               ; preds = %24, %33
  %27 = phi i8* [ %29, %33 ], [ %18, %24 ]
  %28 = phi i8* [ %30, %33 ], [ %17, %24 ]
  %29 = getelementptr inbounds i8, i8* %27, i64 1
  %30 = getelementptr inbounds i8, i8* %28, i64 1
  %31 = load i8, i8* %29, align 1, !tbaa !5
  %32 = icmp eq i8 %31, 0
  br i1 %32, label %38, label %33, !llvm.loop !8

33:                                               ; preds = %26
  %34 = load i8, i8* %30, align 1, !tbaa !5
  %35 = icmp eq i8 %31, %34
  br i1 %35, label %26, label %41

36:                                               ; preds = %20
  %37 = icmp eq i32 %16, 1
  br i1 %37, label %38, label %41

38:                                               ; preds = %36, %26
  %39 = trunc i64 %22 to i32
  %40 = call i32 (i8*, ...) @printf(i8* nonnull dereferenceable(1) getelementptr inbounds ([3 x i8], [3 x i8]* @.str.1, i64 0, i64 0), i32 %39)
  br label %57

41:                                               ; preds = %33, %24, %36
  %42 = phi i8 [ 0, %36 ], [ %13, %24 ], [ %31, %33 ]
  %43 = phi i8* [ %18, %36 ], [ %18, %24 ], [ %29, %33 ]
  %44 = phi i32 [ %16, %36 ], [ 0, %24 ], [ 0, %33 ]
  %45 = shl i64 %22, 32
  %46 = ashr exact i64 %45, 32
  %47 = getelementptr inbounds [50 x i8], [50 x i8]* %1, i64 0, i64 %46
  br label %48

48:                                               ; preds = %12, %41
  %49 = phi i8 [ %42, %41 ], [ %13, %12 ]
  %50 = phi i8 [ %42, %41 ], [ %14, %12 ]
  %51 = phi i8* [ %43, %41 ], [ %18, %12 ]
  %52 = phi i8* [ %47, %41 ], [ %17, %12 ]
  %53 = phi i32 [ %44, %41 ], [ %16, %12 ]
  %54 = getelementptr inbounds i8, i8* %52, i64 1
  %55 = load i8, i8* %54, align 1, !tbaa !5
  %56 = icmp eq i8 %55, 0
  br i1 %56, label %57, label %12, !llvm.loop !10

57:                                               ; preds = %48, %0, %38
  call void @llvm.lifetime.end.p0i8(i64 50, i8* nonnull %4) #3
  call void @llvm.lifetime.end.p0i8(i64 50, i8* nonnull %3) #3
  ret void
}

; Function Attrs: argmemonly mustprogress nofree nosync nounwind willreturn
declare void @llvm.lifetime.start.p0i8(i64 immarg, i8* nocapture) #1

; Function Attrs: nofree nounwind
declare noundef i32 @__isoc99_scanf(i8* nocapture noundef readonly, ...) local_unnamed_addr #2

; Function Attrs: nofree nounwind
declare noundef i32 @printf(i8* nocapture noundef readonly, ...) local_unnamed_addr #2

; Function Attrs: argmemonly mustprogress nofree nosync nounwind willreturn
declare void @llvm.lifetime.end.p0i8(i64 immarg, i8* nocapture) #1


!llvm.module.flags = !{!0, !1, !2, !3}
!llvm.ident = !{!4}

!0 = !{i32 1, !"wchar_size", i32 4}
!1 = !{i32 7, !"PIC Level", i32 2}
!2 = !{i32 7, !"PIE Level", i32 2}
!3 = !{i32 7, !"uwtable", i32 1}
!4 = !{!"clang version 13.0.0"}
!5 = !{!6, !6, i64 0}
!6 = !{!"omnipotent char", !7, i64 0}
!7 = !{!"Simple C/C++ TBAA"}
!8 = distinct !{!8, !9}
!9 = !{!"llvm.loop.mustprogress"}
!10 = distinct !{!10, !9}
